; Function Attrs: nounwind sspstrong uwtable
define dso_local void @timerlist_free(ptr noundef %timer_list) local_unnamed_addr #0 {
entry:
  %active_timers.i = getelementptr inbounds nuw i8, ptr %timer_list, i64 56
  %0 = load atomic i64, ptr %active_timers.i monotonic, align 8
  %tobool.i.not = icmp eq i64 %0, 0
  br i1 %tobool.i.not, label %if.end, label %if.else

if.else:                                          ; preds = %entry
  tail call void @__assert_fail(ptr noundef nonnull @.str, ptr noundef nonnull @.str.1, i32 noundef 115, ptr noundef nonnull @__PRETTY_FUNCTION__.timerlist_free) #18
  unreachable

if.end:                                           ; preds = %entry
  %1 = load ptr, ptr %timer_list, align 8
  %tobool.not = icmp eq ptr %1, null
  br i1 %tobool.not, label %if.end17, label %do.body

do.body:                                          ; preds = %if.end
  %list = getelementptr inbounds nuw i8, ptr %timer_list, i64 64
  %2 = load ptr, ptr %list, align 8
  %cmp.not = icmp eq ptr %2, null
  %le_prev12.phi.trans.insert = getelementptr inbounds nuw i8, ptr %timer_list, i64 72
  %.pre11 = load ptr, ptr %le_prev12.phi.trans.insert, align 8
  br i1 %cmp.not, label %if.end8, label %if.then2

if.then2:                                         ; preds = %do.body
  %le_prev7 = getelementptr inbounds nuw i8, ptr %2, i64 72
  store ptr %.pre11, ptr %le_prev7, align 8
  %.pre = load ptr, ptr %list, align 8
  br label %if.end8

if.end8:                                          ; preds = %do.body, %if.then2
  %3 = phi ptr [ %.pre, %if.then2 ], [ null, %do.body ]
  store ptr %3, ptr %.pre11, align 8
  tail call void @llvm.memset.p0.i64(ptr noundef nonnull align 8 dereferenceable(16) %list, i8 0, i64 16, i1 false)
  br label %if.end17

if.end17:                                         ; preds = %if.end8, %if.end
  %active_timers_lock = getelementptr inbounds nuw i8, ptr %timer_list, i64 8
  tail call void @qemu_mutex_destroy(ptr noundef nonnull %active_timers_lock) #17
  tail call void @g_free(ptr noundef nonnull %timer_list) #17
  ret void
}